; Function Attrs: nounwind uwtable
define dso_local ptr @ShmemAllocUnlocked(i64 noundef %0) local_unnamed_addr #1 {
  %2 = add i64 %0, 7
  %3 = and i64 %2, -8
  %4 = load ptr, ptr @ShmemSegHdr, align 8
  %5 = getelementptr inbounds nuw i8, ptr %4, i64 16
  %6 = load i64, ptr %5, align 8
  %7 = add i64 %6, %3
  %8 = getelementptr inbounds nuw i8, ptr %4, i64 8
  %9 = load i64, ptr %8, align 8
  %10 = icmp ugt i64 %7, %9
  br i1 %10, label %11, label %15

11:                                               ; preds = %1
  %12 = tail call zeroext i1 @errstart_cold(i32 noundef 21, ptr noundef null) #8
  tail call void @llvm.assume(i1 %12)
  %13 = tail call i32 @errcode(i32 noundef 8389) #9
  %14 = tail call i32 (ptr, ...) @errmsg(ptr noundef nonnull @.str, i64 noundef %3) #9
  tail call void @errfinish(ptr noundef nonnull @.str.1, i32 noundef 253, ptr noundef nonnull @__func__.ShmemAllocUnlocked) #9
  unreachable

15:                                               ; preds = %1
  store i64 %7, ptr %5, align 8
  %16 = load ptr, ptr @ShmemBase, align 8
  %17 = getelementptr inbounds nuw i8, ptr %16, i64 %6
  ret ptr %17
}